; Function Attrs: nounwind uwtable
define ptr @l_Array_foldlMUnsafe_fold___at_Lean_Server_FileWorker_handleStaleDependency___spec__1(ptr noundef %0, ptr noundef readonly captures(none) %1, i64 noundef %2, i64 noundef %3, ptr noundef %4) local_unnamed_addr #0 {
  %.not62 = icmp eq i64 %2, %3
  br i1 %.not62, label %.._crit_edge_crit_edge, label %.lr.ph

.._crit_edge_crit_edge:                           ; preds = %5
  %.pre = ptrtoint ptr %0 to i64
  %.pre65 = and i64 %.pre, 1
  br label %._crit_edge

.lr.ph:                                           ; preds = %5
  %6 = getelementptr inbounds nuw i8, ptr %1, i64 24
  %7 = ptrtoint ptr %0 to i64
  %8 = and i64 %7, 1
  %.not58 = icmp eq i64 %8, 0
  br label %9

9:                                                ; preds = %.lr.ph, %lean_dec.exit34
  %.02864 = phi i64 [ %2, %.lr.ph ], [ %65, %lean_dec.exit34 ]
  %.03063 = phi ptr [ %4, %.lr.ph ], [ %.232, %lean_dec.exit34 ]
  %10 = getelementptr inbounds nuw [0 x ptr], ptr %6, i64 0, i64 %.02864
  %11 = load ptr, ptr %10, align 8, !tbaa !4
  %12 = ptrtoint ptr %11 to i64
  %13 = and i64 %12, 1
  %.not.i43 = icmp eq i64 %13, 0
  br i1 %.not.i43, label %14, label %lean_array_uget.exit

14:                                               ; preds = %9
  %.val.i.i = load i32, ptr %11, align 4, !tbaa !10
  %15 = icmp sgt i32 %.val.i.i, 0
  br i1 %15, label %16, label %18, !prof !13

16:                                               ; preds = %14
  %17 = add nuw i32 %.val.i.i, 1
  store i32 %17, ptr %11, align 4, !tbaa !10
  br label %lean_array_uget.exit

18:                                               ; preds = %14
  %.not.i.i = icmp eq i32 %.val.i.i, 0
  br i1 %.not.i.i, label %lean_array_uget.exit, label %19

19:                                               ; preds = %18
  tail call void @lean_inc_ref_cold(ptr noundef nonnull %11) #7
  br label %lean_array_uget.exit

lean_array_uget.exit:                             ; preds = %9, %16, %18, %19
  %20 = getelementptr inbounds nuw i8, ptr %11, i64 56
  %21 = load ptr, ptr %20, align 8, !tbaa !4
  %22 = ptrtoint ptr %21 to i64
  %23 = and i64 %22, 1
  %.not57 = icmp eq i64 %23, 0
  br i1 %.not57, label %24, label %lean_inc.exit33

24:                                               ; preds = %lean_array_uget.exit
  %.val.i = load i32, ptr %21, align 4, !tbaa !10
  %25 = icmp sgt i32 %.val.i, 0
  br i1 %25, label %26, label %28, !prof !13

26:                                               ; preds = %24
  %27 = add nuw i32 %.val.i, 1
  store i32 %27, ptr %21, align 4, !tbaa !10
  br label %lean_inc.exit33

28:                                               ; preds = %24
  %.not.i44 = icmp eq i32 %.val.i, 0
  br i1 %.not.i44, label %lean_inc.exit33, label %29

29:                                               ; preds = %28
  tail call void @lean_inc_ref_cold(ptr noundef nonnull %21) #7
  br label %lean_inc.exit33

lean_inc.exit33:                                  ; preds = %29, %28, %26, %lean_array_uget.exit
  %30 = tail call ptr @l_Lean_Widget_TaggedText_stripTags___rarg(ptr noundef %21) #7
  br i1 %.not58, label %31, label %lean_inc.exit

31:                                               ; preds = %lean_inc.exit33
  %.val.i45 = load i32, ptr %0, align 4, !tbaa !10
  %32 = icmp sgt i32 %.val.i45, 0
  br i1 %32, label %33, label %35, !prof !13

33:                                               ; preds = %31
  %34 = add nuw i32 %.val.i45, 1
  store i32 %34, ptr %0, align 4, !tbaa !10
  br label %lean_inc.exit

35:                                               ; preds = %31
  %.not.i46 = icmp eq i32 %.val.i45, 0
  br i1 %.not.i46, label %lean_inc.exit, label %36

36:                                               ; preds = %35
  tail call void @lean_inc_ref_cold(ptr noundef nonnull %0) #7
  br label %lean_inc.exit

lean_inc.exit:                                    ; preds = %36, %35, %33, %lean_inc.exit33
  %37 = tail call ptr @l_Lean_Widget_TaggedText_stripTags___rarg(ptr noundef %0) #7
  %38 = icmp eq ptr %30, %37
  br i1 %38, label %lean_string_dec_eq.exit, label %39

39:                                               ; preds = %lean_inc.exit
  %40 = getelementptr i8, ptr %30, i64 8
  %.val.i.i48 = load i64, ptr %40, align 8, !tbaa !8
  %41 = getelementptr i8, ptr %37, i64 8
  %.val7.i.i = load i64, ptr %41, align 8, !tbaa !8
  %42 = icmp eq i64 %.val.i.i48, %.val7.i.i
  br i1 %42, label %43, label %lean_string_dec_eq.exit

43:                                               ; preds = %39
  %44 = tail call zeroext i1 @lean_string_eq_cold(ptr noundef nonnull %30, ptr noundef nonnull %37) #7
  %45 = xor i1 %44, true
  br label %lean_string_dec_eq.exit

lean_string_dec_eq.exit:                          ; preds = %lean_inc.exit, %39, %43
  %46 = phi i1 [ false, %lean_inc.exit ], [ true, %39 ], [ %45, %43 ]
  %47 = ptrtoint ptr %37 to i64
  %48 = and i64 %47, 1
  %.not59 = icmp eq i64 %48, 0
  br i1 %.not59, label %49, label %lean_dec.exit36

49:                                               ; preds = %lean_string_dec_eq.exit
  %50 = load i32, ptr %37, align 4, !tbaa !10
  %51 = icmp sgt i32 %50, 1
  br i1 %51, label %52, label %54, !prof !13

52:                                               ; preds = %49
  %53 = add nsw i32 %50, -1
  store i32 %53, ptr %37, align 4, !tbaa !10
  br label %lean_dec.exit36

54:                                               ; preds = %49
  %.not.i = icmp eq i32 %50, 0
  br i1 %.not.i, label %lean_dec.exit36, label %55

55:                                               ; preds = %54
  tail call void @lean_dec_ref_cold(ptr noundef nonnull %37) #7
  br label %lean_dec.exit36

lean_dec.exit36:                                  ; preds = %55, %54, %52, %lean_string_dec_eq.exit
  %56 = ptrtoint ptr %30 to i64
  %57 = and i64 %56, 1
  %.not60 = icmp eq i64 %57, 0
  br i1 %.not60, label %58, label %lean_dec.exit35

58:                                               ; preds = %lean_dec.exit36
  %59 = load i32, ptr %30, align 4, !tbaa !10
  %60 = icmp sgt i32 %59, 1
  br i1 %60, label %61, label %63, !prof !13

61:                                               ; preds = %58
  %62 = add nsw i32 %59, -1
  store i32 %62, ptr %30, align 4, !tbaa !10
  br label %lean_dec.exit35

63:                                               ; preds = %58
  %.not.i37 = icmp eq i32 %59, 0
  br i1 %.not.i37, label %lean_dec.exit35, label %64

64:                                               ; preds = %63
  tail call void @lean_dec_ref_cold(ptr noundef nonnull %30) #7
  br label %lean_dec.exit35

lean_dec.exit35:                                  ; preds = %64, %63, %61, %lean_dec.exit36
  %65 = add i64 %.02864, 1
  br i1 %46, label %66, label %68

66:                                               ; preds = %lean_dec.exit35
  %67 = tail call ptr @lean_array_push(ptr noundef %.03063, ptr noundef nonnull %11) #7
  br label %lean_dec.exit34

68:                                               ; preds = %lean_dec.exit35
  br i1 %.not.i43, label %69, label %lean_dec.exit34

69:                                               ; preds = %68
  %70 = load i32, ptr %11, align 4, !tbaa !10
  %71 = icmp sgt i32 %70, 1
  br i1 %71, label %72, label %74, !prof !13

72:                                               ; preds = %69
  %73 = add nsw i32 %70, -1
  store i32 %73, ptr %11, align 4, !tbaa !10
  br label %lean_dec.exit34

74:                                               ; preds = %69
  %.not.i39 = icmp eq i32 %70, 0
  br i1 %.not.i39, label %lean_dec.exit34, label %75

75:                                               ; preds = %74
  tail call void @lean_dec_ref_cold(ptr noundef nonnull %11) #7
  br label %lean_dec.exit34

._crit_edge:                                      ; preds = %lean_dec.exit34, %.._crit_edge_crit_edge
  %.pre-phi66 = phi i64 [ %.pre65, %.._crit_edge_crit_edge ], [ %8, %lean_dec.exit34 ]
  %.030.lcssa = phi ptr [ %4, %.._crit_edge_crit_edge ], [ %.232, %lean_dec.exit34 ]
  %.not56 = icmp eq i64 %.pre-phi66, 0
  br i1 %.not56, label %76, label %83

76:                                               ; preds = %._crit_edge
  %77 = load i32, ptr %0, align 4, !tbaa !10
  %78 = icmp sgt i32 %77, 1
  br i1 %78, label %79, label %81, !prof !13

79:                                               ; preds = %76
  %80 = add nsw i32 %77, -1
  store i32 %80, ptr %0, align 4, !tbaa !10
  br label %83

81:                                               ; preds = %76
  %.not.i41 = icmp eq i32 %77, 0
  br i1 %.not.i41, label %83, label %82

82:                                               ; preds = %81
  tail call void @lean_dec_ref_cold(ptr noundef nonnull %0) #7
  br label %83

lean_dec.exit34:                                  ; preds = %68, %72, %74, %75, %66
  %.232 = phi ptr [ %67, %66 ], [ %.03063, %75 ], [ %.03063, %74 ], [ %.03063, %72 ], [ %.03063, %68 ]
  %.not = icmp eq i64 %65, %3
  br i1 %.not, label %._crit_edge, label %9

83:                                               ; preds = %82, %81, %79, %._crit_edge
  ret ptr %.030.lcssa
}